(lp0
(lp1
cnumpy.core.multiarray
scalar
p2
(cnumpy
dtype
p3
(S'f8'
p4
I0
I1
tp5
Rp6
(I3
S'<'
p7
NNNI-1
I-1
I0
tp8
bS'\t\x1b\x9e^)\xcb\xe2?'
p9
tp10
Rp11
ag2
(g6
S'h\xb3\xeas\xb5\x15\xe1?'
p12
tp13
Rp14
ag2
(g6
S'jM\xf3\x8eSt\xe2?'
p15
tp16
Rp17
ag2
(g6
S'\x81\x04\xc5\x8f1w\xe1?'
p18
tp19
Rp20
ag2
(g6
S'o\x12\x83\xc0\xca\xa1\xe1?'
p21
tp22
Rp23
ag2
(g6
S'\xdb\x8a\xfde\xf7\xe4\xe1?'
p24
tp25
Rp26
ag2
(g6
S'\x00o\x81\x04\xc5\x8f\xe1?'
p27
tp28
Rp29
ag2
(g6
S'$\xb9\xfc\x87\xf4\xdb\xe1?'
p30
tp31
Rp32
ag2
(g6
S'\xff\xb2{\xf2\xb0P\xe1?'
p33
tp34
Rp35
ag2
(g6
S'\x89\xd2\xde\xe0\x0b\x93\xe1?'
p36
tp37
Rp38
ag2
(g6
S'\xd1\x91\\\xfeC\xfa\xe1?'
p39
tp40
Rp41
ag2
(g6
S'\xb0\x03\xe7\x8c(\xed\xe1?'
p42
tp43
Rp44
ag2
(g6
S')\\\x8f\xc2\xf5(\xe2?'
p45
tp46
Rp47
ag2
(g6
S'\x92\xcb\x7fH\xbf}\xe1?'
p48
tp49
Rp50
ag2
(g6
S'"\x8euq\x1b\r\xe2?'
p51
tp52
Rp53
ag2
(g6
S'\xd2\x00\xde\x02\t\x8a\xe1?'
p54
tp55
Rp56
ag2
(g6
S'\x8euq\x1b\r\xe0\xe1?'
p57
tp58
Rp59
ag2
(g6
S'\x1c|a2U0\xe2?'
p60
tp61
Rp62
ag2
(g6
S'j\xbct\x93\x18\x04\xe2?'
p63
tp64
Rp65
ag2
(g6
S'p_\x07\xce\x19Q\xe2?'
p66
tp67
Rp68
ag2
(g6
S'\r\xe0-\x90\xa0\xf8\xe1?'
p69
tp70
Rp71
ag2
(g6
S'\x1c|a2U0\xe2?'
p72
tp73
Rp74
ag2
(g6
S'EGr\xf9\x0f\xe9\xe1?'
p75
tp76
Rp77
ag2
(g6
S'\xf9\xa0g\xb3\xeas\xe1?'
p78
tp79
Rp80
ag2
(g6
S'\x83\xc0\xca\xa1E\xb6\xe1?'
p81
tp82
Rp83
ag2
(g6
S'\x84\rO\xaf\x94e\xe2?'
p84
tp85
Rp86
ag2
(g6
S'=\n\xd7\xa3p=\xe2?'
p87
tp88
Rp89
ag2
(g6
S'\x00\x00\x00\x00\x00\x00\xe2?'
p90
tp91
Rp92
ag2
(g6
S'{\x14\xaeG\xe1z\xe2?'
p93
tp94
Rp95
ag2
(g6
S'\x9d\x11\xa5\xbd\xc1\x17\xe2?'
p96
tp97
Rp98
ag2
(g6
S'"\x8euq\x1b\r\xe2?'
p99
tp100
Rp101
ag2
(g6
S'\x94\x87\x85Z\xd3\xbc\xe1?'
p102
tp103
Rp104
ag2
(g6
S'Q\xda\x1b|a2\xe1?'
p105
tp106
Rp107
ag2
(g6
S'\xe2X\x17\xb7\xd1\x00\xe2?'
p108
tp109
Rp110
ag2
(g6
S'\xc6\xdc\xb5\x84|\xd0\xe1?'
p111
tp112
Rp113
ag2
(g6
S't$\x97\xff\x90~\xe1?'
p114
tp115
Rp116
ag2
(g6
S'\x96\xb2\x0cq\xac\x8b\xe1?'
p117
tp118
Rp119
ag2
(g6
S'0*\xa9\x13\xd0D\xe2?'
p120
tp121
Rp122
ag2
(g6
S'\x8e\x06\xf0\x16HP\xe2?'
p123
tp124
Rp125
ag2
(g6
S'\xd9\xce\xf7S\xe3\xa5\xe1?'
p126
tp127
Rp128
ag2
(g6
S'\xde\x02\t\x8a\x1fc\xe2?'
p129
tp130
Rp131
ag2
(g6
S'\x13\xf2A\xcff\xd5\xe1?'
p132
tp133
Rp134
ag2
(g6
S'M\x84\rO\xaf\x94\xe1?'
p135
tp136
Rp137
ag2
(g6
S'\x91\x0fz6\xab>\xe1?'
p138
tp139
Rp140
ag2
(g6
S'\x96C\x8bl\xe7\xfb\xe1?'
p141
tp142
Rp143
ag2
(g6
S'_\x07\xce\x19Q\xda\xe1?'
p144
tp145
Rp146
ag2
(g6
S'\xe4\x83\x9e\xcd\xaa\xcf\xe1?'
p147
tp148
Rp149
ag2
(g6
S'\x81\x95C\x8bl\xe7\xe1?'
p150
tp151
Rp152
ag2
(g6
S'\xfe\xd4x\xe9&1\xe2?'
p153
tp154
Rp155
ag2
(g6
S'B`\xe5\xd0"\xdb\xe1?'
p156
tp157
Rp158
ag2
(g6
S'\xd0D\xd8\xf0\xf4J\xe1?'
p159
tp160
Rp161
ag2
(g6
S'\x16jM\xf3\x8eS\xe2?'
p162
tp163
Rp164
ag2
(g6
S'\x00o\x81\x04\xc5\x8f\xe1?'
p165
tp166
Rp167
ag2
(g6
S'V\x0e-\xb2\x9d\xef\xe1?'
p168
tp169
Rp170
ag2
(g6
S'\x0b$(~\x8c\xb9\xe1?'
p171
tp172
Rp173
ag2
(g6
S'Z\xf5\xb9\xda\x8a\xfd\xe1?'
p174
tp175
Rp176
ag2
(g6
S'\xac\x1cZd;\xdf\xe1?'
p177
tp178
Rp179
ag2
(g6
S'\xfb\\m\xc5\xfe\xb2\xe1?'
p180
tp181
Rp182
ag2
(g6
S'\x7f\xd9=yX\xa8\xe1?'
p183
tp184
Rp185
ag2
(g6
S'\xcc\x7fH\xbf}\x1d\xe2?'
p186
tp187
Rp188
ag2
(g6
S'M\x84\rO\xaf\x94\xe1?'
p189
tp190
Rp191
ag2
(g6
S'\xf3\x8eSt$\x97\xe1?'
p192
tp193
Rp194
ag2
(g6
S'r\xf9\x0f\xe9\xb7\xaf\xe1?'
p195
tp196
Rp197
ag2
(g6
S'\t\xf9\xa0g\xb3\xea\xe1?'
p198
tp199
Rp200
ag2
(g6
S'\xa6\nF%u\x02\xe2?'
p201
tp202
Rp203
ag2
(g6
S'Qk\x9aw\x9c\xa2\xe1?'
p204
tp205
Rp206
ag2
(g6
S'%u\x02\x9a\x08\x1b\xe2?'
p207
tp208
Rp209
ag2
(g6
S'\x06\x12\x14?\xc6\xdc\xe1?'
p210
tp211
Rp212
ag2
(g6
S'vq\x1b\r\xe0-\xe2?'
p213
tp214
Rp215
ag2
(g6
S"R'\xa0\x89\xb0\xe1\xe1?"
p216
tp217
Rp218
ag2
(g6
S'\xa9\xa4N@\x13a\xe1?'
p219
tp220
Rp221
ag2
(g6
S'5\xef8EGr\xe1?'
p222
tp223
Rp224
ag2
(g6
S'\xe8j+\xf6\x97\xdd\xe1?'
p225
tp226
Rp227
ag2
(g6
S'=\n\xd7\xa3p=\xe2?'
p228
tp229
Rp230
ag2
(g6
S'\x8cJ\xea\x044\x11\xe2?'
p231
tp232
Rp233
ag2
(g6
S'\xa1\xf81\xe6\xae%\xe2?'
p234
tp235
Rp236
ag2
(g6
S'z\xc7):\x92\xcb\xe1?'
p237
tp238
Rp239
ag2
(g6
S'\xc3\xf5(\\\x8f\xc2\xe1?'
p240
tp241
Rp242
ag2
(g6
S'a\xc3\xd3+e\x19\xe2?'
p243
tp244
Rp245
ag2
(g6
S'i\x00o\x81\x04\xc5\xe1?'
p246
tp247
Rp248
ag2
(g6
S'"\xfd\xf6u\xe0\x9c\xe1?'
p249
tp250
Rp251
ag2
(g6
S'\xe0-\x90\xa0\xf81\xe2?'
p252
tp253
Rp254
ag2
(g6
S'\xfeC\xfa\xed\xeb\xc0\xe1?'
p255
tp256
Rp257
ag2
(g6
S'\xbb\xb8\x8d\x06\xf0\x16\xe2?'
p258
tp259
Rp260
ag2
(g6
S'\xe0\x9c\x11\xa5\xbd\xc1\xe1?'
p261
tp262
Rp263
ag2
(g6
S'\xa85\xcd;N\xd1\xe1?'
p264
tp265
Rp266
ag2
(g6
S'x\x0b$(~\x8c\xe1?'
p267
tp268
Rp269
ag2
(g6
S"TR'\xa0\x89\xb0\xe1?"
p270
tp271
Rp272
ag2
(g6
S"'\xa0\x89\xb0\xe1\xe9\xe1?"
p273
tp274
Rp275
ag2
(g6
S'\x92\xcb\x7fH\xbf}\xe1?'
p276
tp277
Rp278
ag2
(g6
S'\xb0\x03\xe7\x8c(\xed\xe1?'
p279
tp280
Rp281
ag2
(g6
S' c\xeeZB>\xe2?'
p282
tp283
Rp284
ag2
(g6
S';\xdfO\x8d\x97n\xe2?'
p285
tp286
Rp287
ag2
(g6
S'\xca\xc3B\xadi\xde\xe1?'
p288
tp289
Rp290
ag2
(g6
S'\xc6\xdc\xb5\x84|\xd0\xe1?'
p291
tp292
Rp293
ag2
(g6
S'\xc0[ A\xf1c\xe2?'
p294
tp295
Rp296
ag2
(g6
S'\x96\xb2\x0cq\xac\x8b\xe1?'
p297
tp298
Rp299
ag2
(g6
S'\xd5\xe7j+\xf6\x97\xe1?'
p300
tp301
Rp302
ag2
(g6
S'j\xbct\x93\x18\x04\xe2?'
p303
tp304
Rp305
ag2
(g6
S'K\xea\x044\x116\xe2?'
p306
tp307
Rp308
aa(lp309
F0.6839
aF0.7113
aF0.7115
aF0.6948
aF0.703
aF0.6911
aF0.7003
aF0.6865
aF0.6759
aF0.7058
aF0.7099
aF0.6682
aF0.683
aF0.6856
aF0.6901
aF0.7066
aF0.6933
aF0.6742
aF0.7083
aF0.6949
aF0.704
aF0.6598
aF0.702
aF0.6953
aF0.6927
aF0.698
aF0.6882
aF0.6729
aF0.6867
aF0.6994
aF0.6981
aF0.7134
aF0.7003
aF0.6969
aF0.7
aF0.6988
aF0.6783
aF0.6896
aF0.6847
aF0.7017
aF0.7011
aF0.6936
aF0.7036
aF0.6811
aF0.6943
aF0.6935
aF0.7003
aF0.6707
aF0.691
aF0.6947
aF0.6883
aF0.6894
aF0.6886
aF0.6727
aF0.6897
aF0.7003
aF0.6872
aF0.7008
aF0.6824
aF0.6865
aF0.6967
aF0.6873
aF0.6767
aF0.6974
aF0.6997
aF0.7027
aF0.6958
aF0.6987
aF0.6928
aF0.7069
aF0.6875
aF0.6947
aF0.6873
aF0.6988
aF0.6835
aF0.6852
aF0.6803
aF0.6988
aF0.6906
aF0.6944
aF0.6957
aF0.6933
aF0.6797
aF0.6943
aF0.6951
aF0.7
aF0.7056
aF0.6978
aF0.6984
aF0.6816
aF0.6857
aF0.6939
aF0.6957
aF0.7075
aF0.6935
aF0.684
aF0.6932
aF0.6852
aF0.6824
aF0.701
aa(lp310
F0.5873
aF0.5339
aF0.5767
aF0.5458
aF0.551
aF0.5592
aF0.5488
aF0.5581
aF0.5411
aF0.5492
aF0.5618
aF0.5602
aF0.5675
aF0.5466
aF0.5641
aF0.5481
aF0.5586
aF0.5684
aF0.563
aF0.5724
aF0.5616
aF0.5684
aF0.5597
aF0.5454
aF0.5535
aF0.5749
aF0.57
aF0.5625
aF0.5775
aF0.5654
aF0.5641
aF0.5543
aF0.5374
aF0.5626
aF0.5567
aF0.5467
aF0.5483
aF0.5709
aF0.5723
aF0.5515
aF0.5746
aF0.5573
aF0.5494
aF0.5389
aF0.562
aF0.5579
aF0.5566
aF0.5595
aF0.5685
aF0.558
aF0.5404
aF0.5727
aF0.5488
aF0.5605
aF0.5539
aF0.5622
aF0.5585
aF0.5531
aF0.5518
aF0.5661
aF0.5494
aF0.5497
aF0.5527
aF0.5599
aF0.5628
aF0.5511
aF0.5658
aF0.5582
aF0.5681
aF0.5588
aF0.5431
aF0.5452
aF0.5583
aF0.57
aF0.5646
aF0.5671
aF0.5561
aF0.555
aF0.5656
aF0.5553
aF0.5504
aF0.5686
aF0.5548
aF0.5653
aF0.5549
aF0.5568
aF0.5484
aF0.5528
aF0.5598
aF0.5466
aF0.5602
aF0.5701
aF0.576
aF0.5584
aF0.5567
aF0.5747
aF0.5483
aF0.5498
aF0.563
aF0.5691
aa(lp311
F0.9557
aF0.9496
aF0.9538
aF0.9511
aF0.9519
aF0.9525
aF0.9515
aF0.9523
aF0.9506
aF0.951
aF0.9525
aF0.9526
aF0.9534
aF0.9514
aF0.9528
aF0.9508
aF0.9527
aF0.9532
aF0.9528
aF0.954
aF0.9526
aF0.9534
aF0.9523
aF0.9511
aF0.9518
aF0.9545
aF0.9537
aF0.9529
aF0.9538
aF0.9531
aF0.9527
aF0.9521
aF0.9502
aF0.9529
aF0.952
aF0.9512
aF0.9512
aF0.9538
aF0.9538
aF0.952
aF0.9535
aF0.9522
aF0.9514
aF0.9504
aF0.9528
aF0.9526
aF0.9521
aF0.9524
aF0.9536
aF0.952
aF0.9508
aF0.9536
aF0.9517
aF0.9527
aF0.9521
aF0.9529
aF0.9522
aF0.9517
aF0.9516
aF0.9531
aF0.9513
aF0.9512
aF0.9519
aF0.9525
aF0.953
aF0.9515
aF0.9535
aF0.9524
aF0.9536
aF0.9527
aF0.9507
aF0.9508
aF0.9522
aF0.9533
aF0.9529
aF0.9533
aF0.9522
aF0.9519
aF0.953
aF0.952
aF0.9515
aF0.9532
aF0.952
aF0.953
aF0.952
aF0.9521
aF0.9514
aF0.9519
aF0.9526
aF0.9512
aF0.9524
aF0.9535
aF0.954
aF0.9527
aF0.9521
aF0.954
aF0.9515
aF0.9514
aF0.9529
aF0.9533
aa(lp312
F0.5313
aF0.4455
aF0.5165
aF0.4627
aF0.4715
aF0.4828
aF0.4656
aF0.4819
aF0.4519
aF0.4794
aF0.4841
aF0.4842
aF0.5013
aF0.4693
aF0.4916
aF0.4691
aF0.4826
aF0.497
aF0.4878
aF0.5025
aF0.4885
aF0.5057
aF0.4841
aF0.4628
aF0.4718
aF0.5093
aF0.5027
aF0.4917
aF0.5137
aF0.4967
aF0.4887
aF0.4786
aF0.4449
aF0.4913
aF0.4816
aF0.4627
aF0.4703
aF0.5052
aF0.5056
aF0.4704
aF0.5119
aF0.4796
aF0.4664
aF0.4488
aF0.487
aF0.4843
aF0.4858
aF0.4882
aF0.4976
aF0.4935
aF0.4494
aF0.5049
aF0.4766
aF0.4884
aF0.4736
aF0.4933
aF0.49
aF0.4747
aF0.468
aF0.4935
aF0.4672
aF0.4695
aF0.4747
aF0.4863
aF0.4941
aF0.4715
aF0.5014
aF0.4828
aF0.4988
aF0.4848
aF0.4573
aF0.4586
aF0.4806
aF0.5011
aF0.491
aF0.4967
aF0.4789
aF0.4745
aF0.4957
aF0.4798
aF0.469
aF0.4981
aF0.4748
aF0.4936
aF0.4786
aF0.4814
aF0.4769
aF0.4778
aF0.484
aF0.4666
aF0.4874
aF0.4995
aF0.5101
aF0.483
aF0.4769
aF0.5081
aF0.4654
aF0.4679
aF0.4904
aF0.4971
aa(lp313
F0.8024
aF0.8104
aF0.8153
aF0.8035
aF0.8082
aF0.8028
aF0.8066
aF0.7998
aF0.7922
aF0.8094
aF0.8129
aF0.7904
aF0.7994
aF0.7986
aF0.8029
aF0.81
aF0.8042
aF0.7942
aF0.8123
aF0.8065
aF0.8102
aF0.7868
aF0.8087
aF0.8031
aF0.8027
aF0.8079
aF0.8028
aF0.7936
aF0.8023
aF0.8081
aF0.8074
aF0.8139
aF0.805
aF0.8063
aF0.8074
aF0.8052
aF0.7945
aF0.8036
aF0.8009
aF0.8076
aF0.8101
aF0.8042
aF0.8084
aF0.7947
aF0.8049
aF0.8041
aF0.8075
aF0.7923
aF0.8042
aF0.8046
aF0.7994
aF0.8036
aF0.8
aF0.7933
aF0.8018
aF0.808
aF0.8008
aF0.8072
aF0.7972
aF0.8011
aF0.8046
aF0.7996
aF0.7948
aF0.8065
aF0.8071
aF0.8079
aF0.8062
aF0.8069
aF0.8047
aF0.8113
aF0.7994
aF0.8035
aF0.8008
aF0.8083
aF0.7992
aF0.8006
aF0.7966
aF0.8066
aF0.8036
aF0.8038
aF0.8045
aF0.8053
aF0.7962
aF0.8056
aF0.8038
aF0.8074
aF0.8093
aF0.806
aF0.8067
aF0.796
aF0.8001
aF0.8059
aF0.8071
aF0.8114
aF0.8038
aF0.8008
aF0.8027
aF0.7982
aF0.7984
aF0.8093
aa(lp314
F0.6339
aF0.6568
aF0.6607
aF0.6412
aF0.6498
aF0.639
aF0.6473
aF0.6347
aF0.6231
aF0.6531
aF0.658
aF0.6169
aF0.6315
aF0.6327
aF0.6383
aF0.6537
aF0.6409
aF0.6235
aF0.6559
aF0.6436
aF0.6518
aF0.6093
aF0.6498
aF0.6424
aF0.6403
aF0.6474
aF0.6366
aF0.6213
aF0.6361
aF0.6476
aF0.6461
aF0.6604
aF0.6464
aF0.645
aF0.6474
aF0.6455
aF0.626
aF0.6381
aF0.6335
aF0.6488
aF0.6498
aF0.6408
aF0.6507
aF0.6279
aF0.6421
aF0.6415
aF0.6482
aF0.6192
aF0.6397
aF0.6433
aF0.6348
aF0.638
aF0.636
aF0.6209
aF0.6369
aF0.648
aF0.6357
aF0.6483
aF0.63
aF0.6349
aF0.6436
aF0.6346
aF0.6244
aF0.645
aF0.6489
aF0.6497
aF0.6446
aF0.6465
aF0.6415
aF0.6544
aF0.634
aF0.641
aF0.6352
aF0.6473
aF0.6323
aF0.6338
aF0.6282
aF0.6458
aF0.6387
aF0.6423
aF0.6426
aF0.6415
aF0.6277
aF0.6422
aF0.643
aF0.6475
aF0.6531
aF0.6454
aF0.6462
aF0.6289
aF0.634
aF0.6423
aF0.6449
aF0.6549
aF0.6411
aF0.6331
aF0.6401
aF0.6326
aF0.631
aF0.6495
aa.