(lp0
(lp1
cnumpy.core.multiarray
scalar
p2
(cnumpy
dtype
p3
(S'f8'
p4
I0
I1
tp5
Rp6
(I3
S'<'
p7
NNNI-1
I-1
I0
tp8
bS'\xf7\x06_\x98L\x15\xe2?'
p9
tp10
Rp11
ag2
(g6
S'\xb9\xfc\x87\xf4\xdb\xd7\xe1?'
p12
tp13
Rp14
ag2
(g6
S'\x9d\x11\xa5\xbd\xc1\x17\xe2?'
p15
tp16
Rp17
ag2
(g6
S'\xca\xc3B\xadi\xde\xe1?'
p18
tp19
Rp20
ag2
(g6
S"'\xa0\x89\xb0\xe1\xe9\xe1?"
p21
tp22
Rp23
ag2
(g6
S'\x14\xaeG\xe1z\x14\xe2?'
p24
tp25
Rp26
ag2
(g6
S'\x7fj\xbct\x93\x18\xe2?'
p27
tp28
Rp29
ag2
(g6
S'p_\x07\xce\x19Q\xe2?'
p30
tp31
Rp32
ag2
(g6
S'\xa7y\xc7):\x92\xe1?'
p33
tp34
Rp35
ag2
(g6
S'\x9a\x99\x99\x99\x99\x99\xe1?'
p36
tp37
Rp38
ag2
(g6
S'3\xc4\xb1.n\xa3\xe1?'
p39
tp40
Rp41
ag2
(g6
S'\xa7y\xc7):\x92\xe1?'
p42
tp43
Rp44
ag2
(g6
S'\xa3\x01\xbc\x05\x12\x14\xe1?'
p45
tp46
Rp47
ag2
(g6
S'\xcd;N\xd1\x91\\\xe2?'
p48
tp49
Rp50
ag2
(g6
S'\xa85\xcd;N\xd1\xe1?'
p51
tp52
Rp53
ag2
(g6
S'\xdcF\x03x\x0b$\xe2?'
p54
tp55
Rp56
ag2
(g6
S'\xd3Mb\x10X9\xe2?'
p57
tp58
Rp59
ag2
(g6
S'_\x07\xce\x19Q\xda\xe1?'
p60
tp61
Rp62
ag2
(g6
S'\xf5JY\x868\xd6\xe1?'
p63
tp64
Rp65
ag2
(g6
S'\x1c\xeb\xe26\x1a\xc0\xe1?'
p66
tp67
Rp68
ag2
(g6
S'\x0f\x0b\xb5\xa6y\xc7\xe1?'
p69
tp70
Rp71
ag2
(g6
S'Qk\x9aw\x9c\xa2\xe1?'
p72
tp73
Rp74
ag2
(g6
S'\xd5x\xe9&1\x08\xe2?'
p75
tp76
Rp77
ag2
(g6
S't\xb5\x15\xfb\xcb\xee\xe1?'
p78
tp79
Rp80
ag2
(g6
S'\x18\x95\xd4\th"\xe2?'
p81
tp82
Rp83
ag2
(g6
S'\xf0\x16HP\xfc\x18\xe1?'
p84
tp85
Rp86
ag2
(g6
S'6<\xbdR\x96!\xe2?'
p87
tp88
Rp89
ag2
(g6
S'&S\x05\xa3\x92:\xe1?'
p90
tp91
Rp92
ag2
(g6
S'\x1c\xeb\xe26\x1a\xc0\xe1?'
p93
tp94
Rp95
ag2
(g6
S'\xd3\xbc\xe3\x14\x1d\xc9\xe1?'
p96
tp97
Rp98
ag2
(g6
S'\xc5 \xb0rh\x91\xe1?'
p99
tp100
Rp101
ag2
(g6
S'a\xc3\xd3+e\x19\xe2?'
p102
tp103
Rp104
ag2
(g6
S'\x89A`\xe5\xd0"\xe1?'
p105
tp106
Rp107
ag2
(g6
S'\xbct\x93\x18\x04V\xe2?'
p108
tp109
Rp110
ag2
(g6
S'\x9f\xcd\xaa\xcf\xd5V\xe2?'
p111
tp112
Rp113
ag2
(g6
S'\xa3\x92:\x01M\x84\xe1?'
p114
tp115
Rp116
ag2
(g6
S'\xe6?\xa4\xdf\xbe\x0e\xe2?'
p117
tp118
Rp119
ag2
(g6
S'\x81\x95C\x8bl\xe7\xe1?'
p120
tp121
Rp122
ag2
(g6
S'\x19\x04V\x0e-\xb2\xe1?'
p123
tp124
Rp125
ag2
(g6
S'q=\n\xd7\xa3p\xe1?'
p126
tp127
Rp128
ag2
(g6
S'I.\xff!\xfd\xf6\xe1?'
p129
tp130
Rp131
ag2
(g6
S'\x19\x04V\x0e-\xb2\xe1?'
p132
tp133
Rp134
ag2
(g6
S'\x8cJ\xea\x044\x11\xe2?'
p135
tp136
Rp137
ag2
(g6
S'\xd5x\xe9&1\x08\xe2?'
p138
tp139
Rp140
ag2
(g6
S'\xdf\xe0\x0b\x93\xa9\x82\xe1?'
p141
tp142
Rp143
ag2
(g6
S'<N\xd1\x91\\\xfe\xe1?'
p144
tp145
Rp146
ag2
(g6
S'\x83\xc0\xca\xa1E\xb6\xe1?'
p147
tp148
Rp149
ag2
(g6
S'\xf7\x06_\x98L\x15\xe2?'
p150
tp151
Rp152
ag2
(g6
S'\xc6m4\x80\xb7@\xe2?'
p153
tp154
Rp155
ag2
(g6
S'\xac\x1cZd;\xdf\xe1?'
p156
tp157
Rp158
ag2
(g6
S'\x01M\x84\rO\xaf\xe2?'
p159
tp160
Rp161
ag2
(g6
S'\xbf\x0e\x9c3\xa2\xb4\xe1?'
p162
tp163
Rp164
ag2
(g6
S'\xb0\x03\xe7\x8c(\xed\xe1?'
p165
tp166
Rp167
ag2
(g6
S'W[\xb1\xbf\xec\x9e\xe2?'
p168
tp169
Rp170
ag2
(g6
S'\x04\xe7\x8c(\xed\r\xe2?'
p171
tp172
Rp173
ag2
(g6
S'\xe2\xe9\x95\xb2\x0cq\xe2?'
p174
tp175
Rp176
ag2
(g6
S'\x99*\x18\x95\xd4\t\xe2?'
p177
tp178
Rp179
ag2
(g6
S'&\xe4\x83\x9e\xcd\xaa\xe1?'
p180
tp181
Rp182
ag2
(g6
S'\xe9&1\x08\xac\x1c\xe2?'
p183
tp184
Rp185
ag2
(g6
S'333333\xe1?'
p186
tp187
Rp188
ag2
(g6
S'd]\xdcF\x03x\xe1?'
p189
tp190
Rp191
ag2
(g6
S'\xdf\xe0\x0b\x93\xa9\x82\xe1?'
p192
tp193
Rp194
ag2
(g6
S'\x8euq\x1b\r\xe0\xe1?'
p195
tp196
Rp197
ag2
(g6
S'\xc3\xf5(\\\x8f\xc2\xe1?'
p198
tp199
Rp200
ag2
(g6
S'\xa3#\xb9\xfc\x87\xf4\xe1?'
p201
tp202
Rp203
ag2
(g6
S't$\x97\xff\x90~\xe1?'
p204
tp205
Rp206
ag2
(g6
S'V\x0e-\xb2\x9d\xef\xe1?'
p207
tp208
Rp209
ag2
(g6
S'r\x8a\x8e\xe4\xf2\x1f\xe2?'
p210
tp211
Rp212
ag2
(g6
S'\xe0\x9c\x11\xa5\xbd\xc1\xe1?'
p213
tp214
Rp215
ag2
(g6
S'\xb1\xbf\xec\x9e<,\xe2?'
p216
tp217
Rp218
ag2
(g6
S'p\xce\x88\xd2\xde\xe0\xe1?'
p219
tp220
Rp221
ag2
(g6
S'\xfeC\xfa\xed\xeb\xc0\xe1?'
p222
tp223
Rp224
ag2
(g6
S'Zd;\xdfO\x8d\xe1?'
p225
tp226
Rp227
ag2
(g6
S'j\xbct\x93\x18\x04\xe2?'
p228
tp229
Rp230
ag2
(g6
S'j\xbct\x93\x18\x04\xe2?'
p231
tp232
Rp233
ag2
(g6
S'\x00\x00\x00\x00\x00\x00\xe2?'
p234
tp235
Rp236
ag2
(g6
S'\x97\xff\x90~\xfb:\xe2?'
p237
tp238
Rp239
ag2
(g6
S'\xb0\x03\xe7\x8c(\xed\xe1?'
p240
tp241
Rp242
ag2
(g6
S'HP\xfc\x18s\xd7\xe0?'
p243
tp244
Rp245
ag2
(g6
S'\x1a\xc0[ A\xf1\xe1?'
p246
tp247
Rp248
ag2
(g6
S'\x03x\x0b$(~\xe2?'
p249
tp250
Rp251
ag2
(g6
S'\xe4\x14\x1d\xc9\xe5?\xe2?'
p252
tp253
Rp254
ag2
(g6
S'g\xd5\xe7j+\xf6\xe1?'
p255
tp256
Rp257
ag2
(g6
S'-\xb2\x9d\xef\xa7\xc6\xe1?'
p258
tp259
Rp260
ag2
(g6
S'\xc0[ A\xf1c\xe2?'
p261
tp262
Rp263
ag2
(g6
S'\xfb\\m\xc5\xfe\xb2\xe1?'
p264
tp265
Rp266
ag2
(g6
S'\x98\xdd\x93\x87\x85Z\xe1?'
p267
tp268
Rp269
ag2
(g6
S'h\x91\xed|?5\xe2?'
p270
tp271
Rp272
ag2
(g6
S'\xaeG\xe1z\x14\xae\xe1?'
p273
tp274
Rp275
ag2
(g6
S'D\xfa\xed\xeb\xc09\xe1?'
p276
tp277
Rp278
ag2
(g6
S'\t\xf9\xa0g\xb3\xea\xe1?'
p279
tp280
Rp281
ag2
(g6
S'\x7f\xd9=yX\xa8\xe1?'
p282
tp283
Rp284
ag2
(g6
S'\x85|\xd0\xb3Y\xf5\xe1?'
p285
tp286
Rp287
ag2
(g6
S'\xecQ\xb8\x1e\x85\xeb\xe1?'
p288
tp289
Rp290
ag2
(g6
S'P\x8d\x97n\x12\x83\xe2?'
p291
tp292
Rp293
ag2
(g6
S'\x8c\xb9k\t\xf9\xa0\xe1?'
p294
tp295
Rp296
ag2
(g6
S'\xe6?\xa4\xdf\xbe\x0e\xe2?'
p297
tp298
Rp299
ag2
(g6
S'\xe2X\x17\xb7\xd1\x00\xe2?'
p300
tp301
Rp302
ag2
(g6
S'Zd;\xdfO\x8d\xe1?'
p303
tp304
Rp305
ag2
(g6
S'<N\xd1\x91\\\xfe\xe1?'
p306
tp307
Rp308
aa(lp309
F0.7118
aF0.7092
aF0.6821
aF0.7069
aF0.6926
aF0.6968
aF0.6773
aF0.691
aF0.6884
aF0.6857
aF0.7
aF0.6949
aF0.6611
aF0.6944
aF0.6847
aF0.7039
aF0.6981
aF0.694
aF0.6919
aF0.6667
aF0.688
aF0.698
aF0.6769
aF0.6804
aF0.6922
aF0.685
aF0.6995
aF0.7015
aF0.6958
aF0.6855
aF0.6959
aF0.6772
aF0.706
aF0.6951
aF0.6747
aF0.7083
aF0.6897
aF0.7036
aF0.6815
aF0.6921
aF0.6935
aF0.6901
aF0.6807
aF0.6886
aF0.6783
aF0.6989
aF0.7106
aF0.6807
aF0.683
aF0.6932
aF0.6931
aF0.6864
aF0.6968
aF0.6879
aF0.6818
aF0.6834
aF0.6997
aF0.6976
aF0.6805
aF0.6654
aF0.7032
aF0.7064
aF0.6903
aF0.6826
aF0.6742
aF0.6845
aF0.6871
aF0.7091
aF0.682
aF0.6911
aF0.7101
aF0.6944
aF0.6834
aF0.6904
aF0.7025
aF0.6933
aF0.7097
aF0.6844
aF0.6784
aF0.6899
aF0.6848
aF0.6957
aF0.7012
aF0.6993
aF0.6893
aF0.672
aF0.6944
aF0.6812
aF0.689
aF0.6697
aF0.6947
aF0.6753
aF0.7114
aF0.6854
aF0.6966
aF0.7006
aF0.6898
aF0.6866
aF0.7144
aF0.6898
aa(lp310
F0.5651
aF0.5576
aF0.5654
aF0.5584
aF0.5598
aF0.565
aF0.5655
aF0.5724
aF0.5491
aF0.55
aF0.5512
aF0.5491
aF0.5337
aF0.5738
aF0.5568
aF0.5669
aF0.5695
aF0.5579
aF0.5574
aF0.5547
aF0.5556
aF0.5511
aF0.5635
aF0.5604
aF0.5667
aF0.5343
aF0.5666
aF0.5384
aF0.5547
aF0.5558
aF0.549
aF0.5656
aF0.5355
aF0.573
aF0.5731
aF0.5474
aF0.5643
aF0.5595
aF0.553
aF0.545
aF0.5614
aF0.553
aF0.5646
aF0.5635
aF0.5472
aF0.5623
aF0.5535
aF0.5651
aF0.5704
aF0.5585
aF0.5839
aF0.5533
aF0.5602
aF0.5819
aF0.5642
aF0.5763
aF0.5637
aF0.5521
aF0.566
aF0.5375
aF0.5459
aF0.5472
aF0.5586
aF0.555
aF0.5611
aF0.5467
aF0.5605
aF0.5664
aF0.5549
aF0.5679
aF0.5587
aF0.5548
aF0.5485
aF0.563
aF0.563
aF0.5625
aF0.5697
aF0.5602
aF0.5263
aF0.5607
aF0.5779
aF0.5703
aF0.5613
aF0.5555
aF0.5747
aF0.5531
aF0.5423
aF0.569
aF0.5525
aF0.5383
aF0.5599
aF0.5518
aF0.5612
aF0.56
aF0.5785
aF0.5509
aF0.5643
aF0.5626
aF0.5485
aF0.5623
aa(lp311
F0.9529
aF0.9525
aF0.9532
aF0.9523
aF0.9525
aF0.9529
aF0.953
aF0.9538
aF0.951
aF0.9515
aF0.9516
aF0.9517
aF0.9499
aF0.9536
aF0.952
aF0.9533
aF0.9535
aF0.9529
aF0.9521
aF0.9517
aF0.9521
aF0.9516
aF0.9527
aF0.9523
aF0.9528
aF0.95
aF0.9532
aF0.9506
aF0.952
aF0.9521
aF0.9511
aF0.953
aF0.9506
aF0.9538
aF0.954
aF0.9513
aF0.953
aF0.9522
aF0.9519
aF0.9508
aF0.9526
aF0.9514
aF0.9529
aF0.9528
aF0.9511
aF0.9525
aF0.9516
aF0.953
aF0.9536
aF0.9521
aF0.9548
aF0.9515
aF0.9524
aF0.9545
aF0.9531
aF0.9543
aF0.9527
aF0.9517
aF0.9528
aF0.9502
aF0.9512
aF0.9511
aF0.9524
aF0.9518
aF0.9527
aF0.9509
aF0.9526
aF0.9534
aF0.952
aF0.9534
aF0.9525
aF0.9522
aF0.9512
aF0.953
aF0.9531
aF0.9525
aF0.9536
aF0.9524
aF0.9489
aF0.9528
aF0.9541
aF0.9534
aF0.9522
aF0.952
aF0.9542
aF0.9519
aF0.9507
aF0.9535
aF0.9516
aF0.9504
aF0.9529
aF0.9516
aF0.9528
aF0.9521
aF0.9545
aF0.9516
aF0.9529
aF0.9528
aF0.9513
aF0.9531
aa(lp312
F0.4931
aF0.486
aF0.4917
aF0.4847
aF0.4817
aF0.492
aF0.4971
aF0.5089
aF0.4698
aF0.467
aF0.4728
aF0.4675
aF0.4553
aF0.5049
aF0.4844
aF0.4947
aF0.5002
aF0.4841
aF0.4799
aF0.478
aF0.4796
aF0.4729
aF0.4917
aF0.4881
aF0.5034
aF0.4464
aF0.4958
aF0.4479
aF0.4838
aF0.4801
aF0.4695
aF0.4922
aF0.445
aF0.506
aF0.512
aF0.4672
aF0.4946
aF0.4972
aF0.4772
aF0.4667
aF0.4912
aF0.4767
aF0.4909
aF0.4886
aF0.4643
aF0.4892
aF0.4804
aF0.4964
aF0.4986
aF0.4832
aF0.5211
aF0.4774
aF0.4862
aF0.5258
aF0.4959
aF0.5108
aF0.4967
aF0.4769
aF0.498
aF0.4584
aF0.4628
aF0.4674
aF0.4814
aF0.4732
aF0.4898
aF0.4667
aF0.4864
aF0.4999
aF0.4749
aF0.4986
aF0.483
aF0.4766
aF0.4691
aF0.493
aF0.4874
aF0.4955
aF0.4976
aF0.4846
aF0.4356
aF0.4841
aF0.5142
aF0.5014
aF0.4919
aF0.4768
aF0.5074
aF0.4785
aF0.4587
aF0.5013
aF0.4731
aF0.4548
aF0.4848
aF0.4777
aF0.4869
aF0.489
aF0.5158
aF0.4697
aF0.4916
aF0.4874
aF0.4647
aF0.4886
aa(lp313
F0.8145
aF0.8124
aF0.7986
aF0.8114
aF0.8038
aF0.8068
aF0.796
aF0.8045
aF0.8002
aF0.7987
aF0.8065
aF0.8037
aF0.7823
aF0.8065
aF0.799
aF0.8106
aF0.8076
aF0.8048
aF0.8026
aF0.7892
aF0.8008
aF0.8057
aF0.7951
aF0.7973
aF0.8041
aF0.7964
aF0.8081
aF0.8063
aF0.8051
aF0.7996
aF0.8043
aF0.7958
aF0.808
aF0.8068
aF0.7952
aF0.8107
aF0.803
aF0.8095
aF0.7971
aF0.8015
aF0.8046
aF0.8018
aF0.798
aF0.8019
aF0.7942
aF0.8074
aF0.8125
aF0.7978
aF0.8
aF0.8036
aF0.8066
aF0.7998
aF0.806
aF0.8032
aF0.7982
aF0.8007
aF0.808
aF0.8053
aF0.7981
aF0.786
aF0.8074
aF0.8096
aF0.8019
aF0.797
aF0.7938
aF0.7974
aF0.8013
aF0.813
aF0.7978
aF0.8042
aF0.8125
aF0.8043
aF0.7969
aF0.803
aF0.8093
aF0.8041
aF0.8138
aF0.7995
aF0.7927
aF0.8025
aF0.802
aF0.8061
aF0.8086
aF0.8064
aF0.8037
aF0.7917
aF0.8024
aF0.7983
aF0.8006
aF0.788
aF0.8051
aF0.7935
aF0.8139
aF0.7995
aF0.8075
aF0.8071
aF0.803
aF0.8009
aF0.814
aF0.8026
aa(lp314
F0.6595
aF0.6569
aF0.6309
aF0.6545
aF0.6403
aF0.645
aF0.626
aF0.6393
aF0.6357
aF0.6332
aF0.6474
aF0.6418
aF0.6091
aF0.6432
aF0.6325
aF0.6517
aF0.647
aF0.6416
aF0.6401
aF0.6149
aF0.6356
aF0.645
aF0.6255
aF0.6288
aF0.6414
aF0.6312
aF0.6479
aF0.6473
aF0.6432
aF0.6333
aF0.643
aF0.6262
aF0.6524
aF0.6436
aF0.6244
aF0.655
aF0.6375
aF0.6519
aF0.6297
aF0.6394
aF0.6417
aF0.6375
aF0.6293
aF0.6368
aF0.6257
aF0.6466
aF0.6582
aF0.6292
aF0.6318
aF0.6409
aF0.6428
aF0.6339
aF0.6444
aF0.6378
aF0.6306
aF0.6327
aF0.648
aF0.6447
aF0.629
aF0.613
aF0.6497
aF0.6532
aF0.6382
aF0.6309
aF0.6228
aF0.6318
aF0.6349
aF0.6574
aF0.6294
aF0.6396
aF0.6576
aF0.6421
aF0.6309
aF0.6382
aF0.6503
aF0.6415
aF0.6581
aF0.6326
aF0.6237
aF0.638
aF0.6339
aF0.6448
aF0.6491
aF0.6467
aF0.6383
aF0.6201
aF0.6414
aF0.6302
aF0.6364
aF0.617
aF0.6423
aF0.6228
aF0.6586
aF0.6337
aF0.6459
aF0.6474
aF0.6379
aF0.6347
aF0.661
aF0.6379
aa.