(lp0
(lp1
cnumpy.core.multiarray
scalar
p2
(cnumpy
dtype
p3
(S'f8'
p4
I0
I1
tp5
Rp6
(I3
S'<'
p7
NNNI-1
I-1
I0
tp8
bS'\xc1\xca\xa1E\xb6\xf3\xed?'
p9
tp10
Rp11
ag2
(g6
S'{\x83/L\xa6\n\xee?'
p12
tp13
Rp14
ag2
(g6
S'\xbb\xb8\x8d\x06\xf0\x16\xee?'
p15
tp16
Rp17
ag2
(g6
S'?5^\xbaI\x0c\xee?'
p18
tp19
Rp20
ag2
(g6
S'Z\xf5\xb9\xda\x8a\xfd\xed?'
p21
tp22
Rp23
ag2
(g6
S'?5^\xbaI\x0c\xee?'
p24
tp25
Rp26
ag2
(g6
S'\x12\x83\xc0\xca\xa1E\xee?'
p27
tp28
Rp29
ag2
(g6
S'\xd3Mb\x10X9\xee?'
p30
tp31
Rp32
ag2
(g6
S'\xd1\x91\\\xfeC\xfa\xed?'
p33
tp34
Rp35
ag2
(g6
S'I.\xff!\xfd\xf6\xed?'
p36
tp37
Rp38
ag2
(g6
S'\xaa\xf1\xd2Mb\x10\xee?'
p39
tp40
Rp41
ag2
(g6
S'EGr\xf9\x0f\xe9\xed?'
p42
tp43
Rp44
ag2
(g6
S'\x02\xbc\x05\x12\x14?\xee?'
p45
tp46
Rp47
ag2
(g6
S'p_\x07\xce\x19Q\xee?'
p48
tp49
Rp50
ag2
(g6
S'\x0f\x9c3\xa2\xb47\xee?'
p51
tp52
Rp53
ag2
(g6
S'\x06\x12\x14?\xc6\xdc\xed?'
p54
tp55
Rp56
ag2
(g6
S'\xae\xd8_vO\x1e\xee?'
p57
tp58
Rp59
ag2
(g6
S'[\xb1\xbf\xec\x9e<\xee?'
p60
tp61
Rp62
ag2
(g6
S'/n\xa3\x01\xbc\x05\xee?'
p63
tp64
Rp65
ag2
(g6
S'\xfe\xd4x\xe9&1\xee?'
p66
tp67
Rp68
ag2
(g6
S'\xe2X\x17\xb7\xd1\x00\xee?'
p69
tp70
Rp71
ag2
(g6
S'\xee|?5^\xba\xed?'
p72
tp73
Rp74
ag2
(g6
S'\xe0\x9c\x11\xa5\xbd\xc1\xed?'
p75
tp76
Rp77
ag2
(g6
S'\xb5\x15\xfb\xcb\xee\xc9\xed?'
p78
tp79
Rp80
ag2
(g6
S'\x04\xe7\x8c(\xed\r\xee?'
p81
tp82
Rp83
ag2
(g6
S'\x7f\xd9=yX\xa8\xed?'
p84
tp85
Rp86
ag2
(g6
S'\x18\x95\xd4\th"\xee?'
p87
tp88
Rp89
ag2
(g6
S'\xae\xd8_vO\x1e\xee?'
p90
tp91
Rp92
ag2
(g6
S')\\\x8f\xc2\xf5(\xee?'
p93
tp94
Rp95
ag2
(g6
S'\xf7\x06_\x98L\x15\xee?'
p96
tp97
Rp98
ag2
(g6
S'_\x07\xce\x19Q\xda\xed?'
p99
tp100
Rp101
ag2
(g6
S'\x0b\xb5\xa6y\xc7)\xee?'
p102
tp103
Rp104
ag2
(g6
S'\x8euq\x1b\r\xe0\xed?'
p105
tp106
Rp107
ag2
(g6
S'M\x15\x8cJ\xea\x04\xee?'
p108
tp109
Rp110
ag2
(g6
S'\xbb\xb8\x8d\x06\xf0\x16\xee?'
p111
tp112
Rp113
ag2
(g6
S'vq\x1b\r\xe0-\xee?'
p114
tp115
Rp116
ag2
(g6
S' c\xeeZB>\xee?'
p117
tp118
Rp119
ag2
(g6
S'6<\xbdR\x96!\xee?'
p120
tp121
Rp122
ag2
(g6
S'\x92\\\xfeC\xfa\xed\xed?'
p123
tp124
Rp125
ag2
(g6
S'\xe6?\xa4\xdf\xbe\x0e\xee?'
p126
tp127
Rp128
ag2
(g6
S']\xdcF\x03x\x0b\xee?'
p129
tp130
Rp131
ag2
(g6
S'\xd1\x91\\\xfeC\xfa\xed?'
p132
tp133
Rp134
ag2
(g6
S'\xae\xd8_vO\x1e\xee?'
p135
tp136
Rp137
ag2
(g6
S'\xd1\x91\\\xfeC\xfa\xed?'
p138
tp139
Rp140
ag2
(g6
S'M\x15\x8cJ\xea\x04\xee?'
p141
tp142
Rp143
ag2
(g6
S'\x0f\x0b\xb5\xa6y\xc7\xed?'
p144
tp145
Rp146
ag2
(g6
S'\x1a\xc0[ A\xf1\xed?'
p147
tp148
Rp149
ag2
(g6
S'6<\xbdR\x96!\xee?'
p150
tp151
Rp152
ag2
(g6
S'\xc8\x98\xbb\x96\x90\x0f\xee?'
p153
tp154
Rp155
ag2
(g6
S'\xdcF\x03x\x0b$\xee?'
p156
tp157
Rp158
ag2
(g6
S'\x7fj\xbct\x93\x18\xee?'
p159
tp160
Rp161
ag2
(g6
S'\x00\x00\x00\x00\x00\x00\xee?'
p162
tp163
Rp164
ag2
(g6
S"e\xaa`TR'\xee?"
p165
tp166
Rp167
ag2
(g6
S'G\x03x\x0b$(\xee?'
p168
tp169
Rp170
ag2
(g6
S'\xe8j+\xf6\x97\xdd\xed?'
p171
tp172
Rp173
ag2
(g6
S'\xa6\nF%u\x02\xee?'
p174
tp175
Rp176
ag2
(g6
S')\\\x8f\xc2\xf5(\xee?'
p177
tp178
Rp179
ag2
(g6
S'\xb7\xd1\x00\xde\x02\t\xee?'
p180
tp181
Rp182
ag2
(g6
S'P\xfc\x18s\xd7\x12\xee?'
p183
tp184
Rp185
ag2
(g6
S'\t\x8a\x1fc\xeeZ\xee?'
p186
tp187
Rp188
ag2
(g6
S')\\\x8f\xc2\xf5(\xee?'
p189
tp190
Rp191
ag2
(g6
S'j\xbct\x93\x18\x04\xee?'
p192
tp193
Rp194
ag2
(g6
S'2U0*\xa9\x13\xee?'
p195
tp196
Rp197
ag2
(g6
S'\x96C\x8bl\xe7\xfb\xed?'
p198
tp199
Rp200
ag2
(g6
S'\r\xe0-\x90\xa0\xf8\xed?'
p201
tp202
Rp203
ag2
(g6
S'\x04\xe7\x8c(\xed\r\xee?'
p204
tp205
Rp206
ag2
(g6
S'\xe4\x14\x1d\xc9\xe5?\xee?'
p207
tp208
Rp209
ag2
(g6
S'\x1e\xa7\xe8H.\xff\xed?'
p210
tp211
Rp212
ag2
(g6
S'\x9f<,\xd4\x9a\xe6\xed?'
p213
tp214
Rp215
ag2
(g6
S'n\xa3\x01\xbc\x05\x12\xee?'
p216
tp217
Rp218
ag2
(g6
S'\xa5N@\x13a\xc3\xed?'
p219
tp220
Rp221
ag2
(g6
S'\xb1\xbf\xec\x9e<,\xee?'
p222
tp223
Rp224
ag2
(g6
S'\xb1\xbf\xec\x9e<,\xee?'
p225
tp226
Rp227
ag2
(g6
S'\x88c]\xdcF\x03\xee?'
p228
tp229
Rp230
ag2
(g6
S'\xe2X\x17\xb7\xd1\x00\xee?'
p231
tp232
Rp233
ag2
(g6
S'\xdeq\x8a\x8e\xe4\xf2\xed?'
p234
tp235
Rp236
ag2
(g6
S'yX\xa85\xcd;\xee?'
p237
tp238
Rp239
ag2
(g6
S'\xd9_vO\x1e\x16\xee?'
p240
tp241
Rp242
ag2
(g6
S'\x1c|a2U0\xee?'
p243
tp244
Rp245
ag2
(g6
S'\xfa\xed\xeb\xc09#\xee?'
p246
tp247
Rp248
ag2
(g6
S'\xbb\xb8\x8d\x06\xf0\x16\xee?'
p249
tp250
Rp251
ag2
(g6
S'\x88c]\xdcF\x03\xee?'
p252
tp253
Rp254
ag2
(g6
S'\x8cJ\xea\x044\x11\xee?'
p255
tp256
Rp257
ag2
(g6
S'O@\x13a\xc3\xd3\xed?'
p258
tp259
Rp260
ag2
(g6
S')\\\x8f\xc2\xf5(\xee?'
p261
tp262
Rp263
ag2
(g6
S'\x7fj\xbct\x93\x18\xee?'
p264
tp265
Rp266
ag2
(g6
S'2U0*\xa9\x13\xee?'
p267
tp268
Rp269
ag2
(g6
S'\xa3#\xb9\xfc\x87\xf4\xed?'
p270
tp271
Rp272
ag2
(g6
S'P\xfc\x18s\xd7\x12\xee?'
p273
tp274
Rp275
ag2
(g6
S'\x88c]\xdcF\x03\xee?'
p276
tp277
Rp278
ag2
(g6
S')\xcb\x10\xc7\xba\xb8\xed?'
p279
tp280
Rp281
ag2
(g6
S'\xae\xd8_vO\x1e\xee?'
p282
tp283
Rp284
ag2
(g6
S'\xf7\x06_\x98L\x15\xee?'
p285
tp286
Rp287
ag2
(g6
S'x\x9c\xa2#\xb9\xfc\xed?'
p288
tp289
Rp290
ag2
(g6
S'I.\xff!\xfd\xf6\xed?'
p291
tp292
Rp293
ag2
(g6
S']\xdcF\x03x\x0b\xee?'
p294
tp295
Rp296
ag2
(g6
S'\x81\x95C\x8bl\xe7\xed?'
p297
tp298
Rp299
ag2
(g6
S'\x8euq\x1b\r\xe0\xed?'
p300
tp301
Rp302
ag2
(g6
S"R'\xa0\x89\xb0\xe1\xed?"
p303
tp304
Rp305
ag2
(g6
S'\x0f\x9c3\xa2\xb47\xee?'
p306
tp307
Rp308
aa(lp309
F0.9417
aF0.9439
aF0.945
aF0.9443
aF0.9428
aF0.9446
aF0.9497
aF0.9485
aF0.9424
aF0.9419
aF0.9445
aF0.9407
aF0.9491
aF0.9505
aF0.9483
aF0.9406
aF0.9456
aF0.9487
aF0.944
aF0.9479
aF0.9434
aF0.9376
aF0.9384
aF0.9377
aF0.9441
aF0.9363
aF0.9465
aF0.9462
aF0.9468
aF0.945
aF0.9398
aF0.9472
aF0.9404
aF0.9435
aF0.9452
aF0.9479
aF0.9489
aF0.9464
aF0.9415
aF0.9442
aF0.9443
aF0.9421
aF0.9461
aF0.9425
aF0.9433
aF0.9375
aF0.9419
aF0.9461
aF0.9441
aF0.9462
aF0.9453
aF0.9429
aF0.9471
aF0.9468
aF0.9398
aF0.9445
aF0.9471
aF0.9442
aF0.9448
aF0.9521
aF0.9468
aF0.9435
aF0.9454
aF0.9426
aF0.9426
aF0.9443
aF0.9493
aF0.9428
aF0.9407
aF0.9449
aF0.9372
aF0.9471
aF0.9467
aF0.9431
aF0.9434
aF0.9415
aF0.9488
aF0.9456
aF0.9475
aF0.9463
aF0.9457
aF0.9432
aF0.9443
aF0.9401
aF0.947
aF0.9452
aF0.9453
aF0.9415
aF0.9446
aF0.9432
aF0.9361
aF0.9458
aF0.9451
aF0.9428
aF0.9425
aF0.9439
aF0.941
aF0.9397
aF0.9406
aF0.9484
aa(lp310
F0.936
aF0.9388
aF0.9403
aF0.939
aF0.9372
aF0.939
aF0.946
aF0.9445
aF0.9368
aF0.9364
aF0.9395
aF0.9347
aF0.9452
aF0.9474
aF0.9443
aF0.9332
aF0.9412
aF0.9449
aF0.9382
aF0.9435
aF0.9376
aF0.929
aF0.9299
aF0.9309
aF0.9392
aF0.9268
aF0.9417
aF0.9412
aF0.9425
aF0.9401
aF0.9329
aF0.9426
aF0.9336
aF0.9381
aF0.9403
aF0.9431
aF0.9451
aF0.9416
aF0.9353
aF0.9393
aF0.9389
aF0.9368
aF0.9412
aF0.9368
aF0.9381
aF0.9306
aF0.9357
aF0.9416
aF0.9394
aF0.9419
aF0.9405
aF0.9375
aF0.9423
aF0.9424
aF0.9333
aF0.9378
aF0.9425
aF0.9386
aF0.9398
aF0.9486
aF0.9425
aF0.938
aF0.9399
aF0.937
aF0.9366
aF0.9392
aF0.9453
aF0.9374
aF0.9344
aF0.9397
aF0.9301
aF0.9429
aF0.9429
aF0.9379
aF0.9376
aF0.9359
aF0.9448
aF0.9402
aF0.9434
aF0.9418
aF0.9403
aF0.9379
aF0.9396
aF0.9321
aF0.9425
aF0.9405
aF0.9399
aF0.9361
aF0.9398
aF0.9379
aF0.9288
aF0.9412
aF0.9401
aF0.9371
aF0.9364
aF0.9389
aF0.9345
aF0.9336
aF0.9338
aF0.9443
aa(lp311
F0.993
aF0.9933
aF0.9935
aF0.9934
aF0.9932
aF0.9934
aF0.9942
aF0.994
aF0.9931
aF0.9931
aF0.9935
aF0.9929
aF0.994
aF0.9942
aF0.994
aF0.9927
aF0.9936
aF0.994
aF0.9933
aF0.9939
aF0.9933
aF0.9923
aF0.9924
aF0.9925
aF0.9934
aF0.9921
aF0.9937
aF0.9937
aF0.9938
aF0.9935
aF0.9928
aF0.9938
aF0.9928
aF0.9933
aF0.9935
aF0.9938
aF0.9941
aF0.9937
aF0.993
aF0.9934
aF0.9934
aF0.9931
aF0.9936
aF0.9932
aF0.9933
aF0.9925
aF0.993
aF0.9937
aF0.9934
aF0.9937
aF0.9935
aF0.9933
aF0.9938
aF0.9938
aF0.9928
aF0.9933
aF0.9938
aF0.9933
aF0.9935
aF0.9944
aF0.9938
aF0.9933
aF0.9935
aF0.9931
aF0.9932
aF0.9934
aF0.9941
aF0.9932
aF0.9929
aF0.9935
aF0.9925
aF0.9938
aF0.9938
aF0.9933
aF0.9932
aF0.993
aF0.9941
aF0.9935
aF0.9939
aF0.9937
aF0.9935
aF0.9933
aF0.9935
aF0.9927
aF0.9938
aF0.9935
aF0.9934
aF0.9931
aF0.9935
aF0.9933
aF0.9923
aF0.9936
aF0.9935
aF0.9932
aF0.9931
aF0.9934
aF0.9929
aF0.9928
aF0.9929
aF0.994
aa(lp312
F0.9356
aF0.9386
aF0.94
aF0.9388
aF0.937
aF0.9388
aF0.9457
aF0.9442
aF0.9365
aF0.9361
aF0.9392
aF0.934
aF0.945
aF0.9472
aF0.944
aF0.9333
aF0.9408
aF0.9446
aF0.9381
aF0.9432
aF0.9375
aF0.9291
aF0.9299
aF0.9306
aF0.939
aF0.927
aF0.9415
aF0.9409
aF0.9421
aF0.9398
aF0.9327
aF0.9424
aF0.9332
aF0.9379
aF0.9398
aF0.9428
aF0.9449
aF0.9412
aF0.9349
aF0.939
aF0.9387
aF0.9365
aF0.941
aF0.9367
aF0.9377
aF0.9302
aF0.9355
aF0.9413
aF0.9391
aF0.9416
aF0.9403
aF0.9371
aF0.9421
aF0.9421
aF0.9331
aF0.9379
aF0.9422
aF0.9385
aF0.9395
aF0.9484
aF0.9422
aF0.9377
aF0.9399
aF0.9368
aF0.9364
aF0.939
aF0.9451
aF0.937
aF0.934
aF0.9395
aF0.9298
aF0.9427
aF0.9427
aF0.9375
aF0.9375
aF0.9356
aF0.9446
aF0.9401
aF0.9432
aF0.9415
aF0.9401
aF0.9375
aF0.939
aF0.932
aF0.9423
aF0.9403
aF0.9397
aF0.9356
aF0.9394
aF0.9376
aF0.9285
aF0.9409
aF0.9398
aF0.9368
aF0.9362
aF0.9385
aF0.9343
aF0.9331
aF0.9334
aF0.944
aa(lp313
F0.9665
aF0.9678
aF0.9685
aF0.968
aF0.9671
aF0.9682
aF0.9713
aF0.9706
aF0.9669
aF0.9666
aF0.9682
aF0.9659
aF0.9709
aF0.9718
aF0.9705
aF0.9656
aF0.9689
aF0.9707
aF0.9677
aF0.9702
aF0.9674
aF0.9637
aF0.9642
aF0.9641
aF0.9679
aF0.9628
aF0.9693
aF0.9691
aF0.9695
aF0.9684
aF0.9652
aF0.9697
aF0.9656
aF0.9676
aF0.9686
aF0.9701
aF0.9708
aF0.9693
aF0.9663
aF0.968
aF0.968
aF0.9668
aF0.969
aF0.9669
aF0.9675
aF0.9639
aF0.9665
aF0.9692
aF0.968
aF0.9692
aF0.9686
aF0.9672
aF0.9696
aF0.9696
aF0.9653
aF0.9679
aF0.9697
aF0.9679
aF0.9683
aF0.9727
aF0.9696
aF0.9675
aF0.9686
aF0.967
aF0.9669
aF0.968
aF0.971
aF0.9671
aF0.9658
aF0.9684
aF0.9637
aF0.9697
aF0.9696
aF0.9674
aF0.9674
aF0.9663
aF0.9707
aF0.9687
aF0.97
aF0.9693
aF0.9688
aF0.9674
aF0.9681
aF0.9652
aF0.9697
aF0.9686
aF0.9686
aF0.9665
aF0.9682
aF0.9674
aF0.9631
aF0.969
aF0.9685
aF0.9671
aF0.9669
aF0.9678
aF0.966
aF0.9653
aF0.9657
aF0.9705
aa(lp314
F0.9302
aF0.9328
aF0.9341
aF0.9333
aF0.9315
aF0.9337
aF0.9397
aF0.9383
aF0.931
aF0.9304
aF0.9335
aF0.929
aF0.9391
aF0.9409
aF0.9381
aF0.9287
aF0.9349
aF0.9386
aF0.9328
aF0.9376
aF0.9322
aF0.9251
aF0.9261
aF0.9254
aF0.933
aF0.9236
aF0.936
aF0.9355
aF0.9363
aF0.9341
aF0.9278
aF0.9367
aF0.9285
aF0.9324
aF0.9344
aF0.9376
aF0.9388
aF0.9358
aF0.93
aF0.9332
aF0.9332
aF0.9307
aF0.9354
aF0.9311
aF0.9321
aF0.9251
aF0.9304
aF0.9355
aF0.9331
aF0.9356
aF0.9345
aF0.9316
aF0.9366
aF0.9363
aF0.9279
aF0.9334
aF0.9366
aF0.9331
aF0.9338
aF0.9426
aF0.9363
aF0.9323
aF0.9346
aF0.9312
aF0.9312
aF0.9333
aF0.9393
aF0.9315
aF0.929
aF0.934
aF0.9248
aF0.9367
aF0.9363
aF0.9319
aF0.9322
aF0.9299
aF0.9386
aF0.9348
aF0.9371
aF0.9358
aF0.9349
aF0.932
aF0.9334
aF0.9281
aF0.9366
aF0.9344
aF0.9345
aF0.93
aF0.9336
aF0.932
aF0.9234
aF0.9351
aF0.9343
aF0.9315
aF0.9311
aF0.9328
aF0.9293
aF0.9278
aF0.9288
aF0.9382
aa.